target datalayout = "e-m:e-p270:32:32-p271:32:32-p272:64:64-i64:64-i128:128-f80:128-n8:16:32:64-S128"
target triple = "x86_64-pc-linux-gnu"

%struct.Abc_Ntk_t_ = type { i32, i32, ptr, ptr, ptr, ptr, ptr, ptr, ptr, ptr, ptr, ptr, ptr, [11 x i32], i32, i32, i32, i32, ptr, i32, ptr, ptr, i32, i32, i32, double, i32, %struct.Vec_Int_t_, ptr, ptr, ptr, ptr, ptr, float, i32, ptr, ptr, ptr, ptr, ptr, ptr, ptr, ptr, ptr, ptr, ptr, ptr, ptr, ptr, ptr, ptr, ptr, ptr, ptr, ptr, ptr }
%struct.Vec_Int_t_ = type { i32, i32, ptr }
%struct.Abc_ManTime_t_ = type { %struct.Abc_Time_t_, %struct.Abc_Time_t_, ptr, ptr, %struct.Abc_Time_t_, %struct.Abc_Time_t_, ptr, ptr }
%struct.Abc_Time_t_ = type { float, float }
%struct.Vec_Ptr_t_ = type { i32, i32, ptr }

; Function Attrs: nounwind uwtable
define internal i32 @Vec_PtrSize(ptr noundef %0) #0 {
  %2 = alloca ptr, align 8
  store ptr %0, ptr %2, align 8
  %3 = load ptr, ptr %2, align 8
  %4 = getelementptr inbounds %struct.Vec_Ptr_t_, ptr %3, i32 0, i32 1
  %5 = load i32, ptr %4, align 4
  ret i32 %5
}

; Function Attrs: nounwind uwtable
define internal i32 @Abc_NtkCoNum(ptr noundef %0) #0 {
  %2 = alloca ptr, align 8
  store ptr %0, ptr %2, align 8
  %3 = load ptr, ptr %2, align 8
  %4 = getelementptr inbounds %struct.Abc_Ntk_t_, ptr %3, i32 0, i32 9
  %5 = load ptr, ptr %4, align 8
  %6 = call i32 @Vec_PtrSize(ptr noundef %5)
  ret i32 %6
}

; Function Attrs: nounwind uwtable
define void @Abc_NtkTimeSetDefaultOutputLoad(ptr noundef %0, float noundef %1, float noundef %2) #0 {
  %4 = alloca ptr, align 8
  %5 = alloca float, align 4
  %6 = alloca float, align 4
  %7 = alloca i32, align 4
  store ptr %0, ptr %4, align 8
  store float %1, ptr %5, align 4
  store float %2, ptr %6, align 4
  %8 = load ptr, ptr %4, align 8
  %9 = getelementptr inbounds %struct.Abc_Ntk_t_, ptr %8, i32 0, i32 31
  %10 = load ptr, ptr %9, align 8
  %11 = icmp eq ptr %10, null
  br i1 %11, label %12, label %17

12:                                               ; preds = %3
  %13 = load ptr, ptr %4, align 8
  %14 = call ptr @Abc_ManTimeStart(ptr noundef %13)
  %15 = load ptr, ptr %4, align 8
  %16 = getelementptr inbounds %struct.Abc_Ntk_t_, ptr %15, i32 0, i32 31
  store ptr %14, ptr %16, align 8
  br label %17

17:                                               ; preds = %12, %3
  %18 = load float, ptr %5, align 4
  %19 = load ptr, ptr %4, align 8
  %20 = getelementptr inbounds %struct.Abc_Ntk_t_, ptr %19, i32 0, i32 31
  %21 = load ptr, ptr %20, align 8
  %22 = getelementptr inbounds %struct.Abc_ManTime_t_, ptr %21, i32 0, i32 5
  %23 = getelementptr inbounds %struct.Abc_Time_t_, ptr %22, i32 0, i32 0
  store float %18, ptr %23, align 8
  %24 = load float, ptr %6, align 4
  %25 = load ptr, ptr %4, align 8
  %26 = getelementptr inbounds %struct.Abc_Ntk_t_, ptr %25, i32 0, i32 31
  %27 = load ptr, ptr %26, align 8
  %28 = getelementptr inbounds %struct.Abc_ManTime_t_, ptr %27, i32 0, i32 5
  %29 = getelementptr inbounds %struct.Abc_Time_t_, ptr %28, i32 0, i32 1
  store float %24, ptr %29, align 4
  %30 = load ptr, ptr %4, align 8
  %31 = getelementptr inbounds %struct.Abc_Ntk_t_, ptr %30, i32 0, i32 31
  %32 = load ptr, ptr %31, align 8
  %33 = getelementptr inbounds %struct.Abc_ManTime_t_, ptr %32, i32 0, i32 7
  %34 = load ptr, ptr %33, align 8
  %35 = icmp ne ptr %34, null
  br i1 %35, label %36, label %84

36:                                               ; preds = %17
  store i32 0, ptr %7, align 4
  br label %37

37:                                               ; preds = %80, %36
  %38 = load i32, ptr %7, align 4
  %39 = load ptr, ptr %4, align 8
  %40 = call i32 @Abc_NtkCoNum(ptr noundef %39)
  %41 = icmp slt i32 %38, %40
  br i1 %41, label %42, label %83

42:                                               ; preds = %37
  %43 = load ptr, ptr %4, align 8
  %44 = getelementptr inbounds %struct.Abc_Ntk_t_, ptr %43, i32 0, i32 31
  %45 = load ptr, ptr %44, align 8
  %46 = getelementptr inbounds %struct.Abc_ManTime_t_, ptr %45, i32 0, i32 7
  %47 = load ptr, ptr %46, align 8
  %48 = load i32, ptr %7, align 4
  %49 = sext i32 %48 to i64
  %50 = getelementptr inbounds %struct.Abc_Time_t_, ptr %47, i64 %49
  %51 = getelementptr inbounds %struct.Abc_Time_t_, ptr %50, i32 0, i32 0
  %52 = load float, ptr %51, align 4
  %53 = fcmp oeq float %52, 0.000000e+00
  br i1 %53, label %54, label %79

54:                                               ; preds = %42
  %55 = load ptr, ptr %4, align 8
  %56 = getelementptr inbounds %struct.Abc_Ntk_t_, ptr %55, i32 0, i32 31
  %57 = load ptr, ptr %56, align 8
  %58 = getelementptr inbounds %struct.Abc_ManTime_t_, ptr %57, i32 0, i32 7
  %59 = load ptr, ptr %58, align 8
  %60 = load i32, ptr %7, align 4
  %61 = sext i32 %60 to i64
  %62 = getelementptr inbounds %struct.Abc_Time_t_, ptr %59, i64 %61
  %63 = getelementptr inbounds %struct.Abc_Time_t_, ptr %62, i32 0, i32 1
  %64 = load float, ptr %63, align 4
  %65 = fcmp oeq float %64, 0.000000e+00
  br i1 %65, label %66, label %79

66:                                               ; preds = %54
  %67 = load ptr, ptr %4, align 8
  %68 = getelementptr inbounds %struct.Abc_Ntk_t_, ptr %67, i32 0, i32 31
  %69 = load ptr, ptr %68, align 8
  %70 = getelementptr inbounds %struct.Abc_ManTime_t_, ptr %69, i32 0, i32 7
  %71 = load ptr, ptr %70, align 8
  %72 = load i32, ptr %7, align 4
  %73 = sext i32 %72 to i64
  %74 = getelementptr inbounds %struct.Abc_Time_t_, ptr %71, i64 %73
  %75 = load ptr, ptr %4, align 8
  %76 = getelementptr inbounds %struct.Abc_Ntk_t_, ptr %75, i32 0, i32 31
  %77 = load ptr, ptr %76, align 8
  %78 = getelementptr inbounds %struct.Abc_ManTime_t_, ptr %77, i32 0, i32 5
  call void @llvm.memcpy.p0.p0.i64(ptr align 4 %74, ptr align 8 %78, i64 8, i1 false)
  br label %79

79:                                               ; preds = %66, %54, %42
  br label %80

80:                                               ; preds = %79
  %81 = load i32, ptr %7, align 4
  %82 = add nsw i32 %81, 1
  store i32 %82, ptr %7, align 4
  br label %37, !llvm.loop !14

83:                                               ; preds = %37
  br label %84

84:                                               ; preds = %83, %17
  ret void
}